target datalayout = "e-m:e-p270:32:32-p271:32:32-p272:64:64-i64:64-i128:128-f80:128-n8:16:32:64-S128"
target triple = "x86_64-pc-linux-gnu"

%"class.llvm::LazyValueInfoWrapperPass" = type { %"class.llvm::FunctionPass.base", %"class.llvm::LazyValueInfo" }
%"class.llvm::FunctionPass.base" = type { %"class.llvm::Pass.base" }
%"class.llvm::Pass.base" = type <{ ptr, ptr, ptr, i32 }>
%"class.llvm::LazyValueInfo" = type { ptr, ptr, ptr }

; Function Attrs: mustprogress nounwind uwtable
define dso_local noundef ptr @_ZN4llvm13LazyValueInfo7getImplEv(ptr noundef nonnull align 8 dereferenceable(24) %0) #0 align 2 {
  %2 = alloca ptr, align 8
  %3 = alloca ptr, align 8
  store ptr %0, ptr %3, align 8
  %4 = load ptr, ptr %3, align 8
  %5 = getelementptr inbounds nuw %"class.llvm::LazyValueInfo", ptr %4, i32 0, i32 2
  %6 = load ptr, ptr %5, align 8
  %7 = icmp ne ptr %6, null
  br i1 %7, label %9, label %8

8:                                                ; preds = %1
  store ptr null, ptr %2, align 8
  br label %12

9:                                                ; preds = %1
  %10 = getelementptr inbounds nuw %"class.llvm::LazyValueInfo", ptr %4, i32 0, i32 2
  %11 = load ptr, ptr %10, align 8
  store ptr %11, ptr %2, align 8
  br label %12

12:                                               ; preds = %9, %8
  %13 = load ptr, ptr %2, align 8
  ret ptr %13
}

; Function Attrs: mustprogress nounwind uwtable
define dso_local void @_ZN4llvm13LazyValueInfo13releaseMemoryEv(ptr noundef nonnull align 8 dereferenceable(24) %0) #0 align 2 {
  %2 = alloca ptr, align 8
  %3 = alloca ptr, align 8
  store ptr %0, ptr %2, align 8
  %4 = load ptr, ptr %2, align 8
  %5 = call noundef ptr @_ZN4llvm13LazyValueInfo7getImplEv(ptr noundef nonnull align 8 dereferenceable(24) %4)
  store ptr %5, ptr %3, align 8
  %6 = load ptr, ptr %3, align 8
  %7 = icmp ne ptr %6, null
  br i1 %7, label %8, label %14

8:                                                ; preds = %1
  %9 = load ptr, ptr %3, align 8
  %10 = icmp eq ptr %9, null
  br i1 %10, label %12, label %11

11:                                               ; preds = %8
  call void @_ZN4llvm17LazyValueInfoImplD2Ev(ptr noundef nonnull align 8 dereferenceable(240) %9) #12
  call void @_ZdlPvm(ptr noundef %9, i64 noundef 240) #15
  br label %12

12:                                               ; preds = %11, %8
  %13 = getelementptr inbounds nuw %"class.llvm::LazyValueInfo", ptr %4, i32 0, i32 2
  store ptr null, ptr %13, align 8
  br label %14

14:                                               ; preds = %12, %1
  ret void
}

; Function Attrs: mustprogress nounwind uwtable
define dso_local void @_ZN4llvm24LazyValueInfoWrapperPass13releaseMemoryEv(ptr noundef nonnull align 8 dereferenceable(56) %0) unnamed_addr #0 align 2 {
  %2 = alloca ptr, align 8
  store ptr %0, ptr %2, align 8
  %3 = load ptr, ptr %2, align 8
  %4 = getelementptr inbounds nuw %"class.llvm::LazyValueInfoWrapperPass", ptr %3, i32 0, i32 1
  call void @_ZN4llvm13LazyValueInfo13releaseMemoryEv(ptr noundef nonnull align 8 dereferenceable(24) %4)
  ret void
}