; Function Attrs: mustprogress nounwind uwtable
define dso_local void @_ZN4llvm24LazyValueInfoWrapperPass13releaseMemoryEv(ptr nocapture noundef nonnull align 8 dereferenceable(56) %0) unnamed_addr #0 align 2 {
  %2 = getelementptr inbounds i8, ptr %0, i64 48
  %3 = load ptr, ptr %2, align 8
  %.not.i = icmp eq ptr %3, null
  br i1 %.not.i, label %_ZN4llvm13LazyValueInfo13releaseMemoryEv.exit, label %4

4:                                                ; preds = %1
  tail call void @_ZN4llvm17LazyValueInfoImplD2Ev(ptr noundef nonnull align 8 dereferenceable(240) %3) #19
  tail call void @_ZdlPvm(ptr noundef nonnull %3, i64 noundef 240) #22
  store ptr null, ptr %2, align 8
  br label %_ZN4llvm13LazyValueInfo13releaseMemoryEv.exit

_ZN4llvm13LazyValueInfo13releaseMemoryEv.exit:    ; preds = %1, %4
  ret void
}